target datalayout = "e-m:e-p270:32:32-p271:32:32-p272:64:64-i64:64-i128:128-f80:128-n8:16:32:64-S128"
target triple = "x86_64-pc-linux-gnu"

%struct.darktable_t = type { %struct.dt_codepath_t, i32, i32, ptr, ptr, ptr, ptr, ptr, ptr, ptr, ptr, ptr, ptr, ptr, ptr, ptr, ptr, ptr, ptr, ptr, ptr, ptr, ptr, ptr, ptr, ptr, ptr, ptr, ptr, ptr, [64 x %struct.dt_pthread_mutex_t], %struct.dt_pthread_mutex_t, %struct.dt_pthread_mutex_t, %struct.dt_pthread_mutex_t, %struct.dt_pthread_mutex_t, %struct.dt_pthread_mutex_t, ptr, ptr, ptr, ptr, ptr, ptr, ptr, ptr, ptr, ptr, ptr, ptr, ptr, %struct.dt_lua_state_t, ptr, double, ptr, i32, [47 x i32], i32, i32, ptr, ptr, %struct.dt_sys_resources_t, %struct.dt_backthumb_t, %struct.dt_gimp_t }
%struct.dt_codepath_t = type { i8, [3 x i8] }
%struct.dt_pthread_mutex_t = type { %union.pthread_mutex_t }
%union.pthread_mutex_t = type { %struct.__pthread_mutex_s }
%struct.__pthread_mutex_s = type { i32, i32, i32, i32, i32, i16, i16, %struct.__pthread_internal_list }
%struct.__pthread_internal_list = type { ptr, ptr }
%struct.dt_lua_state_t = type { i32 }
%struct.dt_sys_resources_t = type { i64, i64, ptr, ptr, i32 }
%struct.dt_backthumb_t = type { double, double, i32, i32, i32, i32 }
%struct.dt_gimp_t = type { i32, ptr, ptr, i32, i32 }

@darktable = external global %struct.darktable_t, align 8
@.str.43 = private unnamed_addr constant [115 x i8] c"generated/home/dtcxzyw/WorkSpace/Projects/compilers/llvm-opt-benchmark/bench/darktable/darktable/src/gui/presets.c\00", align 1
@stderr = external global ptr, align 8
@.str.45 = private unnamed_addr constant [53 x i8] c"sqlite3 error: %s:%d, function %s(), query \22%s\22: %s\0A\00", align 1
@.str.46 = private unnamed_addr constant [41 x i8] c"[sql] %s:%d, function %s(): prepare \22%s\22\00", align 1
@.str.48 = private unnamed_addr constant [41 x i8] c"sqlite3 error: %s:%d, function %s(): %s\0A\00", align 1
@__FUNCTION__.dt_gui_presets_update_mml = private unnamed_addr constant [26 x i8] c"dt_gui_presets_update_mml\00", align 1
@.str.95 = private unnamed_addr constant [115 x i8] c"UPDATE data.presets SET maker='%' || ?1 || '%', model=?2, lens=?3 WHERE operation=?4 AND op_version=?5 AND name=?6\00", align 1
@.str.96 = private unnamed_addr constant [2 x i8] c"%\00", align 1

; Function Attrs: nounwind uwtable
define void @dt_gui_presets_update_mml(ptr noundef %0, ptr noundef %1, i32 noundef %2, ptr noundef %3, ptr noundef %4, ptr noundef %5) #0 {
  %7 = alloca ptr, align 8
  %8 = alloca ptr, align 8
  %9 = alloca i32, align 4
  %10 = alloca ptr, align 8
  %11 = alloca ptr, align 8
  %12 = alloca ptr, align 8
  %13 = alloca ptr, align 8
  %14 = alloca i32, align 4
  %15 = alloca i32, align 4
  %16 = alloca i32, align 4
  %17 = alloca i32, align 4
  %18 = alloca i32, align 4
  %19 = alloca i32, align 4
  %20 = alloca i32, align 4
  %21 = alloca i32, align 4
  %22 = alloca i32, align 4
  store ptr %0, ptr %7, align 8, !tbaa !11
  store ptr %1, ptr %8, align 8, !tbaa !11
  store i32 %2, ptr %9, align 4, !tbaa !13
  store ptr %3, ptr %10, align 8, !tbaa !11
  store ptr %4, ptr %11, align 8, !tbaa !11
  store ptr %5, ptr %12, align 8, !tbaa !11
  call void @llvm.lifetime.start.p0(i64 8, ptr %13) #11
  br label %23

23:                                               ; preds = %6
  br label %24

24:                                               ; preds = %23
  %25 = load i32, ptr getelementptr inbounds nuw (%struct.darktable_t, ptr @darktable, i32 0, i32 2), align 8, !tbaa !23
  %26 = and i32 256, %25
  %27 = icmp ne i32 %26, 0
  br i1 %27, label %28, label %34

28:                                               ; preds = %24
  %29 = load i32, ptr getelementptr inbounds nuw (%struct.darktable_t, ptr @darktable, i32 0, i32 2), align 8, !tbaa !23
  %30 = xor i32 %29, -1
  %31 = and i32 0, %30
  %32 = icmp ne i32 %31, 0
  br i1 %32, label %34, label %33

33:                                               ; preds = %28
  call void (ptr, ...) @dt_print_ext(ptr noundef @.str.46, ptr noundef @.str.43, i32 noundef 1856, ptr noundef @__FUNCTION__.dt_gui_presets_update_mml, ptr noundef @.str.95)
  br label %34

34:                                               ; preds = %33, %28, %24
  br label %35

35:                                               ; preds = %34
  br label %36

36:                                               ; preds = %35
  call void @llvm.lifetime.start.p0(i64 4, ptr %14) #11
  %37 = load ptr, ptr getelementptr inbounds nuw (%struct.darktable_t, ptr @darktable, i32 0, i32 18), align 8, !tbaa !59
  %38 = call ptr @dt_database_get(ptr noundef %37)
  %39 = call i32 @sqlite3_prepare_v2(ptr noundef %38, ptr noundef @.str.95, i32 noundef -1, ptr noundef %13, ptr noundef null)
  store i32 %39, ptr %14, align 4, !tbaa !13
  %40 = load i32, ptr %14, align 4, !tbaa !13
  %41 = icmp ne i32 %40, 0
  br i1 %41, label %42, label %48

42:                                               ; preds = %36
  %43 = load ptr, ptr @stderr, align 8, !tbaa !60
  %44 = load ptr, ptr getelementptr inbounds nuw (%struct.darktable_t, ptr @darktable, i32 0, i32 18), align 8, !tbaa !59
  %45 = call ptr @dt_database_get(ptr noundef %44)
  %46 = call ptr @sqlite3_errmsg(ptr noundef %45)
  %47 = call i32 (ptr, ptr, ...) @fprintf(ptr noundef %43, ptr noundef @.str.45, ptr noundef @.str.43, i32 noundef 1856, ptr noundef @__FUNCTION__.dt_gui_presets_update_mml, ptr noundef @.str.95, ptr noundef %46) #11
  br label %48

48:                                               ; preds = %42, %36
  call void @llvm.lifetime.end.p0(i64 4, ptr %14) #11
  br label %49

49:                                               ; preds = %48
  br label %50

50:                                               ; preds = %49
  call void @llvm.lifetime.start.p0(i64 4, ptr %15) #11
  %51 = load ptr, ptr %13, align 8, !tbaa !62
  %52 = load ptr, ptr %10, align 8, !tbaa !11
  %53 = call i32 @sqlite3_bind_text(ptr noundef %51, i32 noundef 1, ptr noundef %52, i32 noundef -1, ptr noundef inttoptr (i64 -1 to ptr))
  store i32 %53, ptr %15, align 4, !tbaa !13
  %54 = load i32, ptr %15, align 4, !tbaa !13
  %55 = icmp ne i32 %54, 0
  br i1 %55, label %56, label %62

56:                                               ; preds = %50
  %57 = load ptr, ptr @stderr, align 8, !tbaa !60
  %58 = load ptr, ptr getelementptr inbounds nuw (%struct.darktable_t, ptr @darktable, i32 0, i32 18), align 8, !tbaa !59
  %59 = call ptr @dt_database_get(ptr noundef %58)
  %60 = call ptr @sqlite3_errmsg(ptr noundef %59)
  %61 = call i32 (ptr, ptr, ...) @fprintf(ptr noundef %57, ptr noundef @.str.48, ptr noundef @.str.43, i32 noundef 1858, ptr noundef @__FUNCTION__.dt_gui_presets_update_mml, ptr noundef %60) #11
  br label %62

62:                                               ; preds = %56, %50
  call void @llvm.lifetime.end.p0(i64 4, ptr %15) #11
  %63 = load ptr, ptr %11, align 8, !tbaa !11
  %64 = load i8, ptr %63, align 1, !tbaa !20
  %65 = icmp ne i8 %64, 0
  br i1 %65, label %66, label %79

66:                                               ; preds = %62
  call void @llvm.lifetime.start.p0(i64 4, ptr %16) #11
  %67 = load ptr, ptr %13, align 8, !tbaa !62
  %68 = load ptr, ptr %11, align 8, !tbaa !11
  %69 = call i32 @sqlite3_bind_text(ptr noundef %67, i32 noundef 2, ptr noundef %68, i32 noundef -1, ptr noundef inttoptr (i64 -1 to ptr))
  store i32 %69, ptr %16, align 4, !tbaa !13
  %70 = load i32, ptr %16, align 4, !tbaa !13
  %71 = icmp ne i32 %70, 0
  br i1 %71, label %72, label %78

72:                                               ; preds = %66
  %73 = load ptr, ptr @stderr, align 8, !tbaa !60
  %74 = load ptr, ptr getelementptr inbounds nuw (%struct.darktable_t, ptr @darktable, i32 0, i32 18), align 8, !tbaa !59
  %75 = call ptr @dt_database_get(ptr noundef %74)
  %76 = call ptr @sqlite3_errmsg(ptr noundef %75)
  %77 = call i32 (ptr, ptr, ...) @fprintf(ptr noundef %73, ptr noundef @.str.48, ptr noundef @.str.43, i32 noundef 1861, ptr noundef @__FUNCTION__.dt_gui_presets_update_mml, ptr noundef %76) #11
  br label %78

78:                                               ; preds = %72, %66
  call void @llvm.lifetime.end.p0(i64 4, ptr %16) #11
  br label %91

79:                                               ; preds = %62
  call void @llvm.lifetime.start.p0(i64 4, ptr %17) #11
  %80 = load ptr, ptr %13, align 8, !tbaa !62
  %81 = call i32 @sqlite3_bind_text(ptr noundef %80, i32 noundef 2, ptr noundef @.str.96, i32 noundef -1, ptr noundef inttoptr (i64 -1 to ptr))
  store i32 %81, ptr %17, align 4, !tbaa !13
  %82 = load i32, ptr %17, align 4, !tbaa !13
  %83 = icmp ne i32 %82, 0
  br i1 %83, label %84, label %90

84:                                               ; preds = %79
  %85 = load ptr, ptr @stderr, align 8, !tbaa !60
  %86 = load ptr, ptr getelementptr inbounds nuw (%struct.darktable_t, ptr @darktable, i32 0, i32 18), align 8, !tbaa !59
  %87 = call ptr @dt_database_get(ptr noundef %86)
  %88 = call ptr @sqlite3_errmsg(ptr noundef %87)
  %89 = call i32 (ptr, ptr, ...) @fprintf(ptr noundef %85, ptr noundef @.str.48, ptr noundef @.str.43, i32 noundef 1865, ptr noundef @__FUNCTION__.dt_gui_presets_update_mml, ptr noundef %88) #11
  br label %90

90:                                               ; preds = %84, %79
  call void @llvm.lifetime.end.p0(i64 4, ptr %17) #11
  br label %91

91:                                               ; preds = %90, %78
  %92 = load ptr, ptr %12, align 8, !tbaa !11
  %93 = load i8, ptr %92, align 1, !tbaa !20
  %94 = icmp ne i8 %93, 0
  br i1 %94, label %95, label %108

95:                                               ; preds = %91
  call void @llvm.lifetime.start.p0(i64 4, ptr %18) #11
  %96 = load ptr, ptr %13, align 8, !tbaa !62
  %97 = load ptr, ptr %12, align 8, !tbaa !11
  %98 = call i32 @sqlite3_bind_text(ptr noundef %96, i32 noundef 3, ptr noundef %97, i32 noundef -1, ptr noundef inttoptr (i64 -1 to ptr))
  store i32 %98, ptr %18, align 4, !tbaa !13
  %99 = load i32, ptr %18, align 4, !tbaa !13
  %100 = icmp ne i32 %99, 0
  br i1 %100, label %101, label %107

101:                                              ; preds = %95
  %102 = load ptr, ptr @stderr, align 8, !tbaa !60
  %103 = load ptr, ptr getelementptr inbounds nuw (%struct.darktable_t, ptr @darktable, i32 0, i32 18), align 8, !tbaa !59
  %104 = call ptr @dt_database_get(ptr noundef %103)
  %105 = call ptr @sqlite3_errmsg(ptr noundef %104)
  %106 = call i32 (ptr, ptr, ...) @fprintf(ptr noundef %102, ptr noundef @.str.48, ptr noundef @.str.43, i32 noundef 1869, ptr noundef @__FUNCTION__.dt_gui_presets_update_mml, ptr noundef %105) #11
  br label %107

107:                                              ; preds = %101, %95
  call void @llvm.lifetime.end.p0(i64 4, ptr %18) #11
  br label %120

108:                                              ; preds = %91
  call void @llvm.lifetime.start.p0(i64 4, ptr %19) #11
  %109 = load ptr, ptr %13, align 8, !tbaa !62
  %110 = call i32 @sqlite3_bind_text(ptr noundef %109, i32 noundef 3, ptr noundef @.str.96, i32 noundef -1, ptr noundef inttoptr (i64 -1 to ptr))
  store i32 %110, ptr %19, align 4, !tbaa !13
  %111 = load i32, ptr %19, align 4, !tbaa !13
  %112 = icmp ne i32 %111, 0
  br i1 %112, label %113, label %119

113:                                              ; preds = %108
  %114 = load ptr, ptr @stderr, align 8, !tbaa !60
  %115 = load ptr, ptr getelementptr inbounds nuw (%struct.darktable_t, ptr @darktable, i32 0, i32 18), align 8, !tbaa !59
  %116 = call ptr @dt_database_get(ptr noundef %115)
  %117 = call ptr @sqlite3_errmsg(ptr noundef %116)
  %118 = call i32 (ptr, ptr, ...) @fprintf(ptr noundef %114, ptr noundef @.str.48, ptr noundef @.str.43, i32 noundef 1873, ptr noundef @__FUNCTION__.dt_gui_presets_update_mml, ptr noundef %117) #11
  br label %119

119:                                              ; preds = %113, %108
  call void @llvm.lifetime.end.p0(i64 4, ptr %19) #11
  br label %120

120:                                              ; preds = %119, %107
  call void @llvm.lifetime.start.p0(i64 4, ptr %20) #11
  %121 = load ptr, ptr %13, align 8, !tbaa !62
  %122 = load ptr, ptr %8, align 8, !tbaa !11
  %123 = call i32 @sqlite3_bind_text(ptr noundef %121, i32 noundef 4, ptr noundef %122, i32 noundef -1, ptr noundef inttoptr (i64 -1 to ptr))
  store i32 %123, ptr %20, align 4, !tbaa !13
  %124 = load i32, ptr %20, align 4, !tbaa !13
  %125 = icmp ne i32 %124, 0
  br i1 %125, label %126, label %132

126:                                              ; preds = %120
  %127 = load ptr, ptr @stderr, align 8, !tbaa !60
  %128 = load ptr, ptr getelementptr inbounds nuw (%struct.darktable_t, ptr @darktable, i32 0, i32 18), align 8, !tbaa !59
  %129 = call ptr @dt_database_get(ptr noundef %128)
  %130 = call ptr @sqlite3_errmsg(ptr noundef %129)
  %131 = call i32 (ptr, ptr, ...) @fprintf(ptr noundef %127, ptr noundef @.str.48, ptr noundef @.str.43, i32 noundef 1875, ptr noundef @__FUNCTION__.dt_gui_presets_update_mml, ptr noundef %130) #11
  br label %132

132:                                              ; preds = %126, %120
  call void @llvm.lifetime.end.p0(i64 4, ptr %20) #11
  call void @llvm.lifetime.start.p0(i64 4, ptr %21) #11
  %133 = load ptr, ptr %13, align 8, !tbaa !62
  %134 = load i32, ptr %9, align 4, !tbaa !13
  %135 = call i32 @sqlite3_bind_int(ptr noundef %133, i32 noundef 5, i32 noundef %134)
  store i32 %135, ptr %21, align 4, !tbaa !13
  %136 = load i32, ptr %21, align 4, !tbaa !13
  %137 = icmp ne i32 %136, 0
  br i1 %137, label %138, label %144

138:                                              ; preds = %132
  %139 = load ptr, ptr @stderr, align 8, !tbaa !60
  %140 = load ptr, ptr getelementptr inbounds nuw (%struct.darktable_t, ptr @darktable, i32 0, i32 18), align 8, !tbaa !59
  %141 = call ptr @dt_database_get(ptr noundef %140)
  %142 = call ptr @sqlite3_errmsg(ptr noundef %141)
  %143 = call i32 (ptr, ptr, ...) @fprintf(ptr noundef %139, ptr noundef @.str.48, ptr noundef @.str.43, i32 noundef 1876, ptr noundef @__FUNCTION__.dt_gui_presets_update_mml, ptr noundef %142) #11
  br label %144

144:                                              ; preds = %138, %132
  call void @llvm.lifetime.end.p0(i64 4, ptr %21) #11
  call void @llvm.lifetime.start.p0(i64 4, ptr %22) #11
  %145 = load ptr, ptr %13, align 8, !tbaa !62
  %146 = load ptr, ptr %7, align 8, !tbaa !11
  %147 = call i32 @sqlite3_bind_text(ptr noundef %145, i32 noundef 6, ptr noundef %146, i32 noundef -1, ptr noundef inttoptr (i64 -1 to ptr))
  store i32 %147, ptr %22, align 4, !tbaa !13
  %148 = load i32, ptr %22, align 4, !tbaa !13
  %149 = icmp ne i32 %148, 0
  br i1 %149, label %150, label %156

150:                                              ; preds = %144
  %151 = load ptr, ptr @stderr, align 8, !tbaa !60
  %152 = load ptr, ptr getelementptr inbounds nuw (%struct.darktable_t, ptr @darktable, i32 0, i32 18), align 8, !tbaa !59
  %153 = call ptr @dt_database_get(ptr noundef %152)
  %154 = call ptr @sqlite3_errmsg(ptr noundef %153)
  %155 = call i32 (ptr, ptr, ...) @fprintf(ptr noundef %151, ptr noundef @.str.48, ptr noundef @.str.43, i32 noundef 1877, ptr noundef @__FUNCTION__.dt_gui_presets_update_mml, ptr noundef %154) #11
  br label %156

156:                                              ; preds = %150, %144
  call void @llvm.lifetime.end.p0(i64 4, ptr %22) #11
  %157 = load ptr, ptr %13, align 8, !tbaa !62
  %158 = call i32 @sqlite3_step(ptr noundef %157)
  %159 = load ptr, ptr %13, align 8, !tbaa !62
  %160 = call i32 @sqlite3_finalize(ptr noundef %159)
  call void @llvm.lifetime.end.p0(i64 8, ptr %13) #11
  ret void
}