; Function Attrs: nounwind uwtable
define void @dt_gui_presets_update_mml(ptr noundef %0, ptr noundef %1, i32 noundef %2, ptr noundef %3, ptr noundef %4, ptr noundef %5) local_unnamed_addr #0 {
  %7 = alloca ptr, align 8
  call void @llvm.lifetime.start.p0(i64 8, ptr nonnull %7) #16
  %8 = load i32, ptr getelementptr inbounds nuw (i8, ptr @darktable, i64 8), align 8, !tbaa !14
  %9 = and i32 %8, 256
  %.not = icmp eq i32 %9, 0
  br i1 %.not, label %11, label %10

10:                                               ; preds = %6
  tail call void (ptr, ...) @dt_print_ext(ptr noundef nonnull @.str.46, ptr noundef nonnull @.str.43, i32 noundef 1856, ptr noundef nonnull @__FUNCTION__.dt_gui_presets_update_mml, ptr noundef nonnull @.str.95) #16
  br label %11

11:                                               ; preds = %10, %6
  %12 = load ptr, ptr getelementptr inbounds nuw (i8, ptr @darktable, i64 136), align 8, !tbaa !53
  %13 = tail call ptr @dt_database_get(ptr noundef %12) #16
  %14 = call i32 @sqlite3_prepare_v2(ptr noundef %13, ptr noundef nonnull @.str.95, i32 noundef -1, ptr noundef nonnull %7, ptr noundef null) #16
  %.not16 = icmp eq i32 %14, 0
  br i1 %.not16, label %21, label %15

15:                                               ; preds = %11
  %16 = load ptr, ptr @stderr, align 8, !tbaa !54
  %17 = load ptr, ptr getelementptr inbounds nuw (i8, ptr @darktable, i64 136), align 8, !tbaa !53
  %18 = call ptr @dt_database_get(ptr noundef %17) #16
  %19 = call ptr @sqlite3_errmsg(ptr noundef %18) #16
  %20 = call i32 (ptr, ptr, ...) @fprintf(ptr noundef %16, ptr noundef nonnull @.str.45, ptr noundef nonnull @.str.43, i32 noundef 1856, ptr noundef nonnull @__FUNCTION__.dt_gui_presets_update_mml, ptr noundef nonnull @.str.95, ptr noundef %19) #17
  br label %21

21:                                               ; preds = %15, %11
  %22 = load ptr, ptr %7, align 8, !tbaa !56
  %23 = call i32 @sqlite3_bind_text(ptr noundef %22, i32 noundef 1, ptr noundef %3, i32 noundef -1, ptr noundef nonnull inttoptr (i64 -1 to ptr)) #16
  %.not17 = icmp eq i32 %23, 0
  br i1 %.not17, label %30, label %24

24:                                               ; preds = %21
  %25 = load ptr, ptr @stderr, align 8, !tbaa !54
  %26 = load ptr, ptr getelementptr inbounds nuw (i8, ptr @darktable, i64 136), align 8, !tbaa !53
  %27 = call ptr @dt_database_get(ptr noundef %26) #16
  %28 = call ptr @sqlite3_errmsg(ptr noundef %27) #16
  %29 = call i32 (ptr, ptr, ...) @fprintf(ptr noundef %25, ptr noundef nonnull @.str.48, ptr noundef nonnull @.str.43, i32 noundef 1858, ptr noundef nonnull @__FUNCTION__.dt_gui_presets_update_mml, ptr noundef %28) #17
  br label %30

30:                                               ; preds = %24, %21
  %31 = load i8, ptr %4, align 1, !tbaa !11
  %.not18 = icmp eq i8 %31, 0
  %32 = load ptr, ptr %7, align 8, !tbaa !56
  br i1 %.not18, label %35, label %33

33:                                               ; preds = %30
  %34 = call i32 @sqlite3_bind_text(ptr noundef %32, i32 noundef 2, ptr noundef nonnull %4, i32 noundef -1, ptr noundef nonnull inttoptr (i64 -1 to ptr)) #16
  %.not20 = icmp eq i32 %34, 0
  br i1 %.not20, label %42, label %.sink.split

35:                                               ; preds = %30
  %36 = call i32 @sqlite3_bind_text(ptr noundef %32, i32 noundef 2, ptr noundef nonnull @.str.96, i32 noundef -1, ptr noundef nonnull inttoptr (i64 -1 to ptr)) #16
  %.not19 = icmp eq i32 %36, 0
  br i1 %.not19, label %42, label %.sink.split

.sink.split:                                      ; preds = %35, %33
  %.sink27 = phi i32 [ 1861, %33 ], [ 1865, %35 ]
  %37 = load ptr, ptr @stderr, align 8, !tbaa !54
  %38 = load ptr, ptr getelementptr inbounds nuw (i8, ptr @darktable, i64 136), align 8, !tbaa !53
  %39 = call ptr @dt_database_get(ptr noundef %38) #16
  %40 = call ptr @sqlite3_errmsg(ptr noundef %39) #16
  %41 = call i32 (ptr, ptr, ...) @fprintf(ptr noundef %37, ptr noundef nonnull @.str.48, ptr noundef nonnull @.str.43, i32 noundef %.sink27, ptr noundef nonnull @__FUNCTION__.dt_gui_presets_update_mml, ptr noundef %40) #17
  br label %42

42:                                               ; preds = %.sink.split, %35, %33
  %43 = load i8, ptr %5, align 1, !tbaa !11
  %.not21 = icmp eq i8 %43, 0
  %44 = load ptr, ptr %7, align 8, !tbaa !56
  br i1 %.not21, label %47, label %45

45:                                               ; preds = %42
  %46 = call i32 @sqlite3_bind_text(ptr noundef %44, i32 noundef 3, ptr noundef nonnull %5, i32 noundef -1, ptr noundef nonnull inttoptr (i64 -1 to ptr)) #16
  %.not23 = icmp eq i32 %46, 0
  br i1 %.not23, label %54, label %.sink.split31

47:                                               ; preds = %42
  %48 = call i32 @sqlite3_bind_text(ptr noundef %44, i32 noundef 3, ptr noundef nonnull @.str.96, i32 noundef -1, ptr noundef nonnull inttoptr (i64 -1 to ptr)) #16
  %.not22 = icmp eq i32 %48, 0
  br i1 %.not22, label %54, label %.sink.split31

.sink.split31:                                    ; preds = %47, %45
  %.sink32 = phi i32 [ 1869, %45 ], [ 1873, %47 ]
  %49 = load ptr, ptr @stderr, align 8, !tbaa !54
  %50 = load ptr, ptr getelementptr inbounds nuw (i8, ptr @darktable, i64 136), align 8, !tbaa !53
  %51 = call ptr @dt_database_get(ptr noundef %50) #16
  %52 = call ptr @sqlite3_errmsg(ptr noundef %51) #16
  %53 = call i32 (ptr, ptr, ...) @fprintf(ptr noundef %49, ptr noundef nonnull @.str.48, ptr noundef nonnull @.str.43, i32 noundef %.sink32, ptr noundef nonnull @__FUNCTION__.dt_gui_presets_update_mml, ptr noundef %52) #17
  br label %54

54:                                               ; preds = %.sink.split31, %47, %45
  %55 = load ptr, ptr %7, align 8, !tbaa !56
  %56 = call i32 @sqlite3_bind_text(ptr noundef %55, i32 noundef 4, ptr noundef %1, i32 noundef -1, ptr noundef nonnull inttoptr (i64 -1 to ptr)) #16
  %.not24 = icmp eq i32 %56, 0
  br i1 %.not24, label %63, label %57

57:                                               ; preds = %54
  %58 = load ptr, ptr @stderr, align 8, !tbaa !54
  %59 = load ptr, ptr getelementptr inbounds nuw (i8, ptr @darktable, i64 136), align 8, !tbaa !53
  %60 = call ptr @dt_database_get(ptr noundef %59) #16
  %61 = call ptr @sqlite3_errmsg(ptr noundef %60) #16
  %62 = call i32 (ptr, ptr, ...) @fprintf(ptr noundef %58, ptr noundef nonnull @.str.48, ptr noundef nonnull @.str.43, i32 noundef 1875, ptr noundef nonnull @__FUNCTION__.dt_gui_presets_update_mml, ptr noundef %61) #17
  br label %63

63:                                               ; preds = %57, %54
  %64 = load ptr, ptr %7, align 8, !tbaa !56
  %65 = call i32 @sqlite3_bind_int(ptr noundef %64, i32 noundef 5, i32 noundef %2) #16
  %.not25 = icmp eq i32 %65, 0
  br i1 %.not25, label %72, label %66

66:                                               ; preds = %63
  %67 = load ptr, ptr @stderr, align 8, !tbaa !54
  %68 = load ptr, ptr getelementptr inbounds nuw (i8, ptr @darktable, i64 136), align 8, !tbaa !53
  %69 = call ptr @dt_database_get(ptr noundef %68) #16
  %70 = call ptr @sqlite3_errmsg(ptr noundef %69) #16
  %71 = call i32 (ptr, ptr, ...) @fprintf(ptr noundef %67, ptr noundef nonnull @.str.48, ptr noundef nonnull @.str.43, i32 noundef 1876, ptr noundef nonnull @__FUNCTION__.dt_gui_presets_update_mml, ptr noundef %70) #17
  br label %72

72:                                               ; preds = %66, %63
  %73 = load ptr, ptr %7, align 8, !tbaa !56
  %74 = call i32 @sqlite3_bind_text(ptr noundef %73, i32 noundef 6, ptr noundef %0, i32 noundef -1, ptr noundef nonnull inttoptr (i64 -1 to ptr)) #16
  %.not26 = icmp eq i32 %74, 0
  br i1 %.not26, label %81, label %75

75:                                               ; preds = %72
  %76 = load ptr, ptr @stderr, align 8, !tbaa !54
  %77 = load ptr, ptr getelementptr inbounds nuw (i8, ptr @darktable, i64 136), align 8, !tbaa !53
  %78 = call ptr @dt_database_get(ptr noundef %77) #16
  %79 = call ptr @sqlite3_errmsg(ptr noundef %78) #16
  %80 = call i32 (ptr, ptr, ...) @fprintf(ptr noundef %76, ptr noundef nonnull @.str.48, ptr noundef nonnull @.str.43, i32 noundef 1877, ptr noundef nonnull @__FUNCTION__.dt_gui_presets_update_mml, ptr noundef %79) #17
  br label %81

81:                                               ; preds = %75, %72
  %82 = load ptr, ptr %7, align 8, !tbaa !56
  %83 = call i32 @sqlite3_step(ptr noundef %82) #16
  %84 = load ptr, ptr %7, align 8, !tbaa !56
  %85 = call i32 @sqlite3_finalize(ptr noundef %84) #16
  call void @llvm.lifetime.end.p0(i64 8, ptr nonnull %7) #16
  ret void
}